target datalayout = "e-m:e-p270:32:32-p271:32:32-p272:64:64-i64:64-i128:128-f80:128-n8:16:32:64-S128"
target triple = "x86_64-pc-linux-gnu"

@stderr = external global ptr, align 8
@.str.6 = private unnamed_addr constant [15 x i8] c"  Version: %s\0A\00", align 1
@.str.7 = private unnamed_addr constant [23 x i8] c"  Resumed session: %s\0A\00", align 1
@.str.8 = private unnamed_addr constant [4 x i8] c"yes\00", align 1
@.str.9 = private unnamed_addr constant [3 x i8] c"no\00", align 1
@.str.10 = private unnamed_addr constant [14 x i8] c"  Cipher: %s\0A\00", align 1
@.str.11 = private unnamed_addr constant [19 x i8] c"  ECDHE curve: %s\0A\00", align 1
@.str.12 = private unnamed_addr constant [28 x i8] c"  Secure renegotiation: %s\0A\00", align 1
@.str.13 = private unnamed_addr constant [34 x i8] c"  Next protocol negotiated: %.*s\0A\00", align 1
@.str.14 = private unnamed_addr constant [23 x i8] c"  ALPN protocol: %.*s\0A\00", align 1
@.str.15 = private unnamed_addr constant [17 x i8] c"  Cert subject: \00", align 1
@.str.16 = private unnamed_addr constant [17 x i8] c"\0A  Cert issuer: \00", align 1
@.str.17 = private unnamed_addr constant [2 x i8] c"\0A\00", align 1

; Function Attrs: mustprogress uwtable
define hidden void @_Z19PrintConnectionInfoPK6ssl_st(ptr noundef %0) #1 {
  %2 = alloca ptr, align 8
  %3 = alloca ptr, align 8
  %4 = alloca ptr, align 8
  %5 = alloca i32, align 4
  %6 = alloca ptr, align 8
  %7 = alloca i32, align 4
  %8 = alloca ptr, align 8
  store ptr %0, ptr %2, align 8, !tbaa !49
  call void @llvm.lifetime.start.p0(i64 8, ptr %3) #16
  %9 = load ptr, ptr %2, align 8, !tbaa !49
  %10 = call ptr @SSL_get_current_cipher(ptr noundef %9)
  store ptr %10, ptr %3, align 8, !tbaa !51
  %11 = load ptr, ptr @stderr, align 8, !tbaa !23
  %12 = load ptr, ptr %2, align 8, !tbaa !49
  %13 = call ptr @SSL_get_version(ptr noundef %12)
  %14 = call i32 (ptr, ptr, ...) @fprintf(ptr noundef %11, ptr noundef @.str.6, ptr noundef %13) #16
  %15 = load ptr, ptr @stderr, align 8, !tbaa !23
  %16 = load ptr, ptr %2, align 8, !tbaa !49
  %17 = call i32 @SSL_session_reused(ptr noundef %16)
  %18 = icmp ne i32 %17, 0
  %19 = select i1 %18, ptr @.str.8, ptr @.str.9
  %20 = call i32 (ptr, ptr, ...) @fprintf(ptr noundef %15, ptr noundef @.str.7, ptr noundef %19) #16
  %21 = load ptr, ptr @stderr, align 8, !tbaa !23
  %22 = load ptr, ptr %3, align 8, !tbaa !51
  %23 = call ptr @SSL_CIPHER_get_name(ptr noundef %22)
  %24 = call i32 (ptr, ptr, ...) @fprintf(ptr noundef %21, ptr noundef @.str.10, ptr noundef %23) #16
  %25 = load ptr, ptr %3, align 8, !tbaa !51
  %26 = call i32 @SSL_CIPHER_is_ECDHE(ptr noundef %25)
  %27 = icmp ne i32 %26, 0
  br i1 %27, label %28, label %36

28:                                               ; preds = %1
  %29 = load ptr, ptr @stderr, align 8, !tbaa !23
  %30 = load ptr, ptr %2, align 8, !tbaa !49
  %31 = call ptr @SSL_get_session(ptr noundef %30)
  %32 = call i32 @SSL_SESSION_get_key_exchange_info(ptr noundef %31)
  %33 = trunc i32 %32 to i16
  %34 = call ptr @SSL_get_curve_name(i16 noundef zeroext %33)
  %35 = call i32 (ptr, ptr, ...) @fprintf(ptr noundef %29, ptr noundef @.str.11, ptr noundef %34) #16
  br label %36

36:                                               ; preds = %28, %1
  %37 = load ptr, ptr @stderr, align 8, !tbaa !23
  %38 = load ptr, ptr %2, align 8, !tbaa !49
  %39 = call i32 @SSL_get_secure_renegotiation_support(ptr noundef %38)
  %40 = icmp ne i32 %39, 0
  %41 = select i1 %40, ptr @.str.8, ptr @.str.9
  %42 = call i32 (ptr, ptr, ...) @fprintf(ptr noundef %37, ptr noundef @.str.12, ptr noundef %41) #16
  call void @llvm.lifetime.start.p0(i64 8, ptr %4) #16
  call void @llvm.lifetime.start.p0(i64 4, ptr %5) #16
  %43 = load ptr, ptr %2, align 8, !tbaa !49
  call void @SSL_get0_next_proto_negotiated(ptr noundef %43, ptr noundef %4, ptr noundef %5)
  %44 = load ptr, ptr @stderr, align 8, !tbaa !23
  %45 = load i32, ptr %5, align 4, !tbaa !22
  %46 = load ptr, ptr %4, align 8, !tbaa !45
  %47 = call i32 (ptr, ptr, ...) @fprintf(ptr noundef %44, ptr noundef @.str.13, i32 noundef %45, ptr noundef %46) #16
  call void @llvm.lifetime.start.p0(i64 8, ptr %6) #16
  call void @llvm.lifetime.start.p0(i64 4, ptr %7) #16
  %48 = load ptr, ptr %2, align 8, !tbaa !49
  call void @SSL_get0_alpn_selected(ptr noundef %48, ptr noundef %6, ptr noundef %7)
  %49 = load ptr, ptr @stderr, align 8, !tbaa !23
  %50 = load i32, ptr %7, align 4, !tbaa !22
  %51 = load ptr, ptr %6, align 8, !tbaa !45
  %52 = call i32 (ptr, ptr, ...) @fprintf(ptr noundef %49, ptr noundef @.str.14, i32 noundef %50, ptr noundef %51) #16
  call void @llvm.lifetime.start.p0(i64 8, ptr %8) #16
  %53 = load ptr, ptr %2, align 8, !tbaa !49
  %54 = call ptr @SSL_get_peer_certificate(ptr noundef %53)
  store ptr %54, ptr %8, align 8, !tbaa !53
  %55 = load ptr, ptr %8, align 8, !tbaa !53
  %56 = icmp ne ptr %55, null
  br i1 %56, label %57, label %73

57:                                               ; preds = %36
  %58 = load ptr, ptr @stderr, align 8, !tbaa !23
  %59 = call i32 (ptr, ptr, ...) @fprintf(ptr noundef %58, ptr noundef @.str.15) #16
  %60 = load ptr, ptr @stderr, align 8, !tbaa !23
  %61 = load ptr, ptr %8, align 8, !tbaa !53
  %62 = call ptr @X509_get_subject_name(ptr noundef %61)
  %63 = call i32 @X509_NAME_print_ex_fp(ptr noundef %60, ptr noundef %62, i32 noundef 0, i64 noundef 8520479)
  %64 = load ptr, ptr @stderr, align 8, !tbaa !23
  %65 = call i32 (ptr, ptr, ...) @fprintf(ptr noundef %64, ptr noundef @.str.16) #16
  %66 = load ptr, ptr @stderr, align 8, !tbaa !23
  %67 = load ptr, ptr %8, align 8, !tbaa !53
  %68 = call ptr @X509_get_issuer_name(ptr noundef %67)
  %69 = call i32 @X509_NAME_print_ex_fp(ptr noundef %66, ptr noundef %68, i32 noundef 0, i64 noundef 8520479)
  %70 = load ptr, ptr @stderr, align 8, !tbaa !23
  %71 = call i32 (ptr, ptr, ...) @fprintf(ptr noundef %70, ptr noundef @.str.17) #16
  %72 = load ptr, ptr %8, align 8, !tbaa !53
  call void @X509_free(ptr noundef %72)
  br label %73

73:                                               ; preds = %57, %36
  call void @llvm.lifetime.end.p0(i64 8, ptr %8) #16
  call void @llvm.lifetime.end.p0(i64 4, ptr %7) #16
  call void @llvm.lifetime.end.p0(i64 8, ptr %6) #16
  call void @llvm.lifetime.end.p0(i64 4, ptr %5) #16
  call void @llvm.lifetime.end.p0(i64 8, ptr %4) #16
  call void @llvm.lifetime.end.p0(i64 8, ptr %3) #16
  ret void
}