; Function Attrs: cold mustprogress uwtable
define hidden void @_Z19PrintConnectionInfoPK6ssl_st(ptr noundef %0) local_unnamed_addr #8 {
  %2 = alloca ptr, align 8
  %3 = alloca i32, align 4
  %4 = alloca ptr, align 8
  %5 = alloca i32, align 4
  %6 = tail call ptr @SSL_get_current_cipher(ptr noundef %0)
  %7 = load ptr, ptr @stderr, align 8, !tbaa !29
  %8 = tail call ptr @SSL_get_version(ptr noundef %0)
  %9 = tail call i32 (ptr, ptr, ...) @fprintf(ptr noundef %7, ptr noundef nonnull @.str.6, ptr noundef %8) #22
  %10 = load ptr, ptr @stderr, align 8, !tbaa !29
  %11 = tail call i32 @SSL_session_reused(ptr noundef %0)
  %.not = icmp eq i32 %11, 0
  %12 = select i1 %.not, ptr @.str.9, ptr @.str.8
  %13 = tail call i32 (ptr, ptr, ...) @fprintf(ptr noundef %10, ptr noundef nonnull @.str.7, ptr noundef nonnull %12) #22
  %14 = load ptr, ptr @stderr, align 8, !tbaa !29
  %15 = tail call ptr @SSL_CIPHER_get_name(ptr noundef %6)
  %16 = tail call i32 (ptr, ptr, ...) @fprintf(ptr noundef %14, ptr noundef nonnull @.str.10, ptr noundef %15) #22
  %17 = tail call i32 @SSL_CIPHER_is_ECDHE(ptr noundef %6)
  %.not14 = icmp eq i32 %17, 0
  br i1 %.not14, label %25, label %18

18:                                               ; preds = %1
  %19 = load ptr, ptr @stderr, align 8, !tbaa !29
  %20 = tail call ptr @SSL_get_session(ptr noundef %0)
  %21 = tail call i32 @SSL_SESSION_get_key_exchange_info(ptr noundef %20)
  %22 = trunc i32 %21 to i16
  %23 = tail call ptr @SSL_get_curve_name(i16 noundef zeroext %22)
  %24 = tail call i32 (ptr, ptr, ...) @fprintf(ptr noundef %19, ptr noundef nonnull @.str.11, ptr noundef %23) #22
  br label %25

25:                                               ; preds = %18, %1
  %26 = load ptr, ptr @stderr, align 8, !tbaa !29
  %27 = tail call i32 @SSL_get_secure_renegotiation_support(ptr noundef %0)
  %.not15 = icmp eq i32 %27, 0
  %28 = select i1 %.not15, ptr @.str.9, ptr @.str.8
  %29 = tail call i32 (ptr, ptr, ...) @fprintf(ptr noundef %26, ptr noundef nonnull @.str.12, ptr noundef nonnull %28) #22
  call void @llvm.lifetime.start.p0(i64 8, ptr nonnull %2) #19
  call void @llvm.lifetime.start.p0(i64 4, ptr nonnull %3) #19
  call void @SSL_get0_next_proto_negotiated(ptr noundef %0, ptr noundef nonnull %2, ptr noundef nonnull %3)
  %30 = load ptr, ptr @stderr, align 8, !tbaa !29
  %31 = load i32, ptr %3, align 4, !tbaa !34
  %32 = load ptr, ptr %2, align 8, !tbaa !44
  %33 = call i32 (ptr, ptr, ...) @fprintf(ptr noundef %30, ptr noundef nonnull @.str.13, i32 noundef %31, ptr noundef %32) #22
  call void @llvm.lifetime.start.p0(i64 8, ptr nonnull %4) #19
  call void @llvm.lifetime.start.p0(i64 4, ptr nonnull %5) #19
  call void @SSL_get0_alpn_selected(ptr noundef %0, ptr noundef nonnull %4, ptr noundef nonnull %5)
  %34 = load ptr, ptr @stderr, align 8, !tbaa !29
  %35 = load i32, ptr %5, align 4, !tbaa !34
  %36 = load ptr, ptr %4, align 8, !tbaa !44
  %37 = call i32 (ptr, ptr, ...) @fprintf(ptr noundef %34, ptr noundef nonnull @.str.14, i32 noundef %35, ptr noundef %36) #22
  %38 = call ptr @SSL_get_peer_certificate(ptr noundef %0)
  %.not16 = icmp eq ptr %38, null
  br i1 %.not16, label %51, label %39

39:                                               ; preds = %25
  %40 = load ptr, ptr @stderr, align 8, !tbaa !29
  %41 = call i64 @fwrite(ptr nonnull @.str.15, i64 16, i64 1, ptr %40) #23
  %42 = load ptr, ptr @stderr, align 8, !tbaa !29
  %43 = call ptr @X509_get_subject_name(ptr noundef nonnull %38)
  %44 = call i32 @X509_NAME_print_ex_fp(ptr noundef %42, ptr noundef %43, i32 noundef 0, i64 noundef 8520479)
  %45 = load ptr, ptr @stderr, align 8, !tbaa !29
  %46 = call i64 @fwrite(ptr nonnull @.str.16, i64 16, i64 1, ptr %45) #23
  %47 = load ptr, ptr @stderr, align 8, !tbaa !29
  %48 = call ptr @X509_get_issuer_name(ptr noundef nonnull %38)
  %49 = call i32 @X509_NAME_print_ex_fp(ptr noundef %47, ptr noundef %48, i32 noundef 0, i64 noundef 8520479)
  %50 = load ptr, ptr @stderr, align 8, !tbaa !29
  %fputc = call i32 @fputc(i32 10, ptr %50)
  call void @X509_free(ptr noundef nonnull %38)
  br label %51

51:                                               ; preds = %39, %25
  call void @llvm.lifetime.end.p0(i64 4, ptr nonnull %5) #19
  call void @llvm.lifetime.end.p0(i64 8, ptr nonnull %4) #19
  call void @llvm.lifetime.end.p0(i64 4, ptr nonnull %3) #19
  call void @llvm.lifetime.end.p0(i64 8, ptr nonnull %2) #19
  ret void
}